target datalayout = "e-m:e-p270:32:32-p271:32:32-p272:64:64-i64:64-i128:128-f80:128-n8:16:32:64-S128"
target triple = "x86_64-pc-linux-gnu"

%struct.AHCIState = type { ptr, %struct.AHCIControlRegs, %struct.MemoryRegion, %struct.MemoryRegion, i32, i32, i32, ptr, ptr }
%struct.AHCIControlRegs = type { i32, i32, i32, i32, i32 }
%struct.MemoryRegion = type { %struct.Object, i8, i8, i8, i8, i8, i8, i8, i8, i8, i8, ptr, ptr, ptr, ptr, ptr, ptr, i32, i128, i64, ptr, i64, i8, i8, i8, i8, ptr, i64, i32, %union.anon, %union.anon.0, %union.anon.1, ptr, i32, ptr, ptr, i8 }
%struct.Object = type { ptr, ptr, ptr, i32, ptr }
%union.anon = type { %struct.QTailQLink }
%struct.QTailQLink = type { ptr, ptr }
%union.anon.0 = type { %struct.QTailQLink }
%union.anon.1 = type { %struct.QTailQLink }
%struct.AHCIDevice = type { %struct.IDEDMA, %struct.IDEBus, i32, i32, i32, %struct.AHCIPortRegs, ptr, ptr, ptr, ptr, i8, i32, i8, ptr, [32 x %struct.NCQTransferState], %struct.MemReentrancyGuard }
%struct.IDEDMA = type { ptr, %struct.QEMUIOVector, ptr }
%struct.QEMUIOVector = type { ptr, i32, %union.anon.3 }
%union.anon.3 = type { %struct.anon.4 }
%struct.anon.4 = type { i32, %struct.iovec }
%struct.iovec = type { ptr, i64 }
%struct.IDEBus = type { %struct.BusState, ptr, ptr, [2 x %struct.IDEState], ptr, i32, i32, ptr, i8, i8, ptr, i32, i8, i64, i32, %struct.PortioList, %struct.PortioList, ptr }
%struct.BusState = type { %struct.Object, ptr, ptr, ptr, i32, i8, i8, i32, %union.BusChildHead, %struct.BusStateEntry, %struct.ResettableState }
%union.BusChildHead = type { %struct.QTailQLink }
%struct.BusStateEntry = type { ptr, ptr }
%struct.ResettableState = type { i32, i8, i8 }
%struct.IDEState = type { ptr, i8, i32, i32, i32, i32, i32, i32, i32, i64, i32, i32, [512 x i8], i32, [21 x i8], [41 x i8], i8, i64, i8, i8, i32, i8, i8, i8, i8, i8, i8, i8, i8, i8, i8, i8, i8, i8, ptr, [9 x i8], %struct.unreported_events, i8, i8, i8, i8, i8, i32, i32, i32, i32, i32, i32, %struct.BlockAcctCookie, ptr, %struct.QEMUIOVector, %struct.anon.6, i64, i32, %struct.QEMUSGList, i32, ptr, ptr, ptr, ptr, i32, i32, i32, i8, ptr, i32, i8, i32, ptr, i32, i32, i8, i8, i32, i8, ptr, i32 }
%struct.unreported_events = type { i8, i8 }
%struct.BlockAcctCookie = type { i64, i64, i32 }
%struct.anon.6 = type { ptr }
%struct.QEMUSGList = type { ptr, i32, i32, i64, ptr, ptr }
%struct.PortioList = type { ptr, ptr, ptr, i32, i32, ptr, ptr, ptr, i8 }
%struct.AHCIPortRegs = type { i32, i32, i32, i32, i32, i32, i32, i32, i32, i32, i32, i32, i32, i32, i32, i32 }
%struct.NCQTransferState = type { ptr, ptr, ptr, %struct.QEMUSGList, %struct.BlockAcctCookie, i32, i64, i8, i8, i8, i8, i8 }
%struct.MemReentrancyGuard = type { i8 }
%struct.timeval = type { i64, i64 }

@trace_events_enabled_count = external global i32, align 4
@message_with_timestamp = external global i8, align 1
@qemu_loglevel = external global i32, align 4
@_TRACE_AHCI_RESET_PORT_DSTATE = external global i16, align 2
@.str.193 = private unnamed_addr constant [55 x i8] c"%d@%zu.%06zu:ahci_reset_port ahci(%p)[%d]: reset port\0A\00", align 1
@.str.194 = private unnamed_addr constant [42 x i8] c"ahci_reset_port ahci(%p)[%d]: reset port\0A\00", align 1

; Function Attrs: inlinehint nounwind sspstrong uwtable
define internal zeroext i1 @qemu_loglevel_mask(i32 noundef %0) #7 {
  %2 = alloca i32, align 4
  store i32 %0, ptr %2, align 4
  %3 = load i32, ptr @qemu_loglevel, align 4
  %4 = load i32, ptr %2, align 4
  %5 = and i32 %3, %4
  %6 = icmp ne i32 %5, 0
  ret i1 %6
}

; Function Attrs: inlinehint nounwind sspstrong uwtable
define internal void @_nocheck__trace_ahci_reset_port(ptr noundef %0, i32 noundef %1) #7 {
  %3 = alloca ptr, align 8
  %4 = alloca i32, align 4
  %5 = alloca %struct.timeval, align 8
  store ptr %0, ptr %3, align 8
  store i32 %1, ptr %4, align 4
  %6 = load i32, ptr @trace_events_enabled_count, align 4
  %7 = icmp ne i32 %6, 0
  %8 = xor i1 %7, true
  %9 = xor i1 %8, true
  %10 = zext i1 %9 to i32
  %11 = sext i32 %10 to i64
  %12 = call i64 @llvm.expect.i64(i64 %11, i64 0)
  %13 = icmp ne i64 %12, 0
  br i1 %13, label %14, label %36

14:                                               ; preds = %2
  %15 = load i16, ptr @_TRACE_AHCI_RESET_PORT_DSTATE, align 2
  %16 = zext i16 %15 to i32
  %17 = icmp ne i32 %16, 0
  br i1 %17, label %18, label %36

18:                                               ; preds = %14
  %19 = call zeroext i1 @qemu_loglevel_mask(i32 noundef 32768)
  br i1 %19, label %20, label %36

20:                                               ; preds = %18
  %21 = load i8, ptr @message_with_timestamp, align 1, !range !11, !noundef !12
  %22 = trunc i8 %21 to i1
  br i1 %22, label %23, label %32

23:                                               ; preds = %20
  call void @llvm.lifetime.start.p0(i64 16, ptr %5) #15
  call void @llvm.memset.p0.i64(ptr align 8 %5, i8 0, i64 16, i1 false), !annotation !4
  %24 = call i32 @gettimeofday(ptr noundef %5, ptr noundef null) #15
  %25 = call i32 @qemu_get_thread_id()
  %26 = getelementptr inbounds nuw %struct.timeval, ptr %5, i32 0, i32 0
  %27 = load i64, ptr %26, align 8
  %28 = getelementptr inbounds nuw %struct.timeval, ptr %5, i32 0, i32 1
  %29 = load i64, ptr %28, align 8
  %30 = load ptr, ptr %3, align 8
  %31 = load i32, ptr %4, align 4
  call void (ptr, ...) @qemu_log(ptr noundef @.str.193, i32 noundef %25, i64 noundef %27, i64 noundef %29, ptr noundef %30, i32 noundef %31)
  call void @llvm.lifetime.end.p0(i64 16, ptr %5) #15
  br label %35

32:                                               ; preds = %20
  %33 = load ptr, ptr %3, align 8
  %34 = load i32, ptr %4, align 4
  call void (ptr, ...) @qemu_log(ptr noundef @.str.194, ptr noundef %33, i32 noundef %34)
  br label %35

35:                                               ; preds = %32, %23
  br label %36

36:                                               ; preds = %35, %18, %14, %2
  ret void
}

; Function Attrs: inlinehint nounwind sspstrong uwtable
define internal void @trace_ahci_reset_port(ptr noundef %0, i32 noundef %1) #7 {
  %3 = alloca ptr, align 8
  %4 = alloca i32, align 4
  store ptr %0, ptr %3, align 8
  store i32 %1, ptr %4, align 4
  %5 = load ptr, ptr %3, align 8
  %6 = load i32, ptr %4, align 4
  call void @_nocheck__trace_ahci_reset_port(ptr noundef %5, i32 noundef %6)
  ret void
}

; Function Attrs: nounwind sspstrong uwtable
define internal void @ahci_reset_port(ptr noundef %0, i32 noundef %1) #0 {
  %3 = alloca ptr, align 8
  %4 = alloca i32, align 4
  %5 = alloca ptr, align 8
  %6 = alloca ptr, align 8
  %7 = alloca ptr, align 8
  %8 = alloca i32, align 4
  %9 = alloca i32, align 4
  %10 = alloca ptr, align 8
  store ptr %0, ptr %3, align 8
  store i32 %1, ptr %4, align 4
  call void @llvm.lifetime.start.p0(i64 8, ptr %5) #15
  %11 = load ptr, ptr %3, align 8
  %12 = getelementptr inbounds nuw %struct.AHCIState, ptr %11, i32 0, i32 0
  %13 = load ptr, ptr %12, align 16
  %14 = load i32, ptr %4, align 4
  %15 = sext i32 %14 to i64
  %16 = getelementptr inbounds %struct.AHCIDevice, ptr %13, i64 %15
  store ptr %16, ptr %5, align 8
  call void @llvm.lifetime.start.p0(i64 8, ptr %6) #15
  %17 = load ptr, ptr %5, align 8
  %18 = getelementptr inbounds nuw %struct.AHCIDevice, ptr %17, i32 0, i32 5
  store ptr %18, ptr %6, align 8
  call void @llvm.lifetime.start.p0(i64 8, ptr %7) #15
  %19 = load ptr, ptr %5, align 8
  %20 = getelementptr inbounds nuw %struct.AHCIDevice, ptr %19, i32 0, i32 1
  %21 = getelementptr inbounds nuw %struct.IDEBus, ptr %20, i32 0, i32 3
  %22 = getelementptr inbounds [2 x %struct.IDEState], ptr %21, i64 0, i64 0
  store ptr %22, ptr %7, align 8
  call void @llvm.lifetime.start.p0(i64 4, ptr %8) #15
  store i32 0, ptr %8, align 4, !annotation !4
  %23 = load ptr, ptr %3, align 8
  %24 = load i32, ptr %4, align 4
  call void @trace_ahci_reset_port(ptr noundef %23, i32 noundef %24)
  %25 = load ptr, ptr %5, align 8
  %26 = getelementptr inbounds nuw %struct.AHCIDevice, ptr %25, i32 0, i32 1
  call void @ide_bus_reset(ptr noundef %26)
  %27 = load ptr, ptr %7, align 8
  %28 = getelementptr inbounds nuw %struct.IDEState, ptr %27, i32 0, i32 76
  store i32 32, ptr %28, align 8
  %29 = load ptr, ptr %6, align 8
  %30 = getelementptr inbounds nuw %struct.AHCIPortRegs, ptr %29, i32 0, i32 10
  store i32 0, ptr %30, align 4
  %31 = load ptr, ptr %6, align 8
  %32 = getelementptr inbounds nuw %struct.AHCIPortRegs, ptr %31, i32 0, i32 12
  store i32 0, ptr %32, align 4
  %33 = load ptr, ptr %6, align 8
  %34 = getelementptr inbounds nuw %struct.AHCIPortRegs, ptr %33, i32 0, i32 13
  store i32 0, ptr %34, align 4
  %35 = load ptr, ptr %6, align 8
  %36 = getelementptr inbounds nuw %struct.AHCIPortRegs, ptr %35, i32 0, i32 8
  store i32 127, ptr %36, align 4
  %37 = load ptr, ptr %6, align 8
  %38 = getelementptr inbounds nuw %struct.AHCIPortRegs, ptr %37, i32 0, i32 9
  store i32 -1, ptr %38, align 4
  %39 = load ptr, ptr %6, align 8
  %40 = getelementptr inbounds nuw %struct.AHCIPortRegs, ptr %39, i32 0, i32 14
  store i32 0, ptr %40, align 4
  %41 = load ptr, ptr %5, align 8
  %42 = getelementptr inbounds nuw %struct.AHCIDevice, ptr %41, i32 0, i32 11
  store i32 -1, ptr %42, align 4
  %43 = load ptr, ptr %5, align 8
  %44 = getelementptr inbounds nuw %struct.AHCIDevice, ptr %43, i32 0, i32 12
  store i8 0, ptr %44, align 8
  %45 = load ptr, ptr %3, align 8
  %46 = getelementptr inbounds nuw %struct.AHCIState, ptr %45, i32 0, i32 0
  %47 = load ptr, ptr %46, align 16
  %48 = load i32, ptr %4, align 4
  %49 = sext i32 %48 to i64
  %50 = getelementptr inbounds %struct.AHCIDevice, ptr %47, i64 %49
  %51 = getelementptr inbounds nuw %struct.AHCIDevice, ptr %50, i32 0, i32 1
  %52 = getelementptr inbounds nuw %struct.IDEBus, ptr %51, i32 0, i32 3
  %53 = getelementptr inbounds [2 x %struct.IDEState], ptr %52, i64 0, i64 0
  store ptr %53, ptr %7, align 8
  %54 = load ptr, ptr %7, align 8
  %55 = getelementptr inbounds nuw %struct.IDEState, ptr %54, i32 0, i32 34
  %56 = load ptr, ptr %55, align 8
  %57 = icmp ne ptr %56, null
  br i1 %57, label %59, label %58

58:                                               ; preds = %2
  store i32 1, ptr %9, align 4
  br label %133

59:                                               ; preds = %2
  store i32 0, ptr %8, align 4
  br label %60

60:                                               ; preds = %106, %59
  %61 = load i32, ptr %8, align 4
  %62 = icmp slt i32 %61, 32
  br i1 %62, label %63, label %109

63:                                               ; preds = %60
  call void @llvm.lifetime.start.p0(i64 8, ptr %10) #15
  %64 = load ptr, ptr %3, align 8
  %65 = getelementptr inbounds nuw %struct.AHCIState, ptr %64, i32 0, i32 0
  %66 = load ptr, ptr %65, align 16
  %67 = load i32, ptr %4, align 4
  %68 = sext i32 %67 to i64
  %69 = getelementptr inbounds %struct.AHCIDevice, ptr %66, i64 %68
  %70 = getelementptr inbounds nuw %struct.AHCIDevice, ptr %69, i32 0, i32 14
  %71 = load i32, ptr %8, align 4
  %72 = sext i32 %71 to i64
  %73 = getelementptr inbounds [32 x %struct.NCQTransferState], ptr %70, i64 0, i64 %72
  store ptr %73, ptr %10, align 8
  %74 = load ptr, ptr %10, align 8
  %75 = getelementptr inbounds nuw %struct.NCQTransferState, ptr %74, i32 0, i32 11
  store i8 0, ptr %75, align 4
  %76 = load ptr, ptr %10, align 8
  %77 = getelementptr inbounds nuw %struct.NCQTransferState, ptr %76, i32 0, i32 10
  %78 = load i8, ptr %77, align 1, !range !11, !noundef !12
  %79 = trunc i8 %78 to i1
  br i1 %79, label %81, label %80

80:                                               ; preds = %63
  store i32 4, ptr %9, align 4
  br label %103

81:                                               ; preds = %63
  %82 = load ptr, ptr %10, align 8
  %83 = getelementptr inbounds nuw %struct.NCQTransferState, ptr %82, i32 0, i32 1
  %84 = load ptr, ptr %83, align 8
  %85 = icmp ne ptr %84, null
  br i1 %85, label %86, label %92

86:                                               ; preds = %81
  %87 = load ptr, ptr %10, align 8
  %88 = getelementptr inbounds nuw %struct.NCQTransferState, ptr %87, i32 0, i32 1
  %89 = load ptr, ptr %88, align 8
  call void @blk_aio_cancel(ptr noundef %89)
  %90 = load ptr, ptr %10, align 8
  %91 = getelementptr inbounds nuw %struct.NCQTransferState, ptr %90, i32 0, i32 1
  store ptr null, ptr %91, align 8
  br label %92

92:                                               ; preds = %86, %81
  %93 = load ptr, ptr %10, align 8
  %94 = getelementptr inbounds nuw %struct.NCQTransferState, ptr %93, i32 0, i32 10
  %95 = load i8, ptr %94, align 1, !range !11, !noundef !12
  %96 = trunc i8 %95 to i1
  br i1 %96, label %98, label %97

97:                                               ; preds = %92
  store i32 4, ptr %9, align 4
  br label %103

98:                                               ; preds = %92
  %99 = load ptr, ptr %10, align 8
  %100 = getelementptr inbounds nuw %struct.NCQTransferState, ptr %99, i32 0, i32 3
  call void @qemu_sglist_destroy(ptr noundef %100)
  %101 = load ptr, ptr %10, align 8
  %102 = getelementptr inbounds nuw %struct.NCQTransferState, ptr %101, i32 0, i32 10
  store i8 0, ptr %102, align 1
  store i32 0, ptr %9, align 4
  br label %103

103:                                              ; preds = %98, %97, %80
  call void @llvm.lifetime.end.p0(i64 8, ptr %10) #15
  %104 = load i32, ptr %9, align 4
  switch i32 %104, label %136 [
    i32 0, label %105
    i32 4, label %106
  ]

105:                                              ; preds = %103
  br label %106

106:                                              ; preds = %105, %103
  %107 = load i32, ptr %8, align 4
  %108 = add i32 %107, 1
  store i32 %108, ptr %8, align 4
  br label %60, !llvm.loop !13

109:                                              ; preds = %60
  %110 = load ptr, ptr %3, align 8
  %111 = getelementptr inbounds nuw %struct.AHCIState, ptr %110, i32 0, i32 0
  %112 = load ptr, ptr %111, align 16
  %113 = load i32, ptr %4, align 4
  %114 = sext i32 %113 to i64
  %115 = getelementptr inbounds %struct.AHCIDevice, ptr %112, i64 %114
  %116 = getelementptr inbounds nuw %struct.AHCIDevice, ptr %115, i32 0, i32 3
  store i32 0, ptr %116, align 4
  %117 = load ptr, ptr %7, align 8
  %118 = getelementptr inbounds nuw %struct.IDEState, ptr %117, i32 0, i32 2
  %119 = load i32, ptr %118, align 4
  %120 = icmp eq i32 %119, 1
  br i1 %120, label %121, label %125

121:                                              ; preds = %109
  %122 = load ptr, ptr %5, align 8
  call void @ahci_set_signature(ptr noundef %122, i32 noundef -351010559)
  %123 = load ptr, ptr %7, align 8
  %124 = getelementptr inbounds nuw %struct.IDEState, ptr %123, i32 0, i32 30
  store i8 112, ptr %124, align 1
  br label %129

125:                                              ; preds = %109
  %126 = load ptr, ptr %5, align 8
  call void @ahci_set_signature(ptr noundef %126, i32 noundef 257)
  %127 = load ptr, ptr %7, align 8
  %128 = getelementptr inbounds nuw %struct.IDEState, ptr %127, i32 0, i32 30
  store i8 48, ptr %128, align 1
  br label %129

129:                                              ; preds = %125, %121
  %130 = load ptr, ptr %7, align 8
  %131 = getelementptr inbounds nuw %struct.IDEState, ptr %130, i32 0, i32 19
  store i8 1, ptr %131, align 1
  %132 = load ptr, ptr %5, align 8
  call void @ahci_init_d2h(ptr noundef %132)
  store i32 0, ptr %9, align 4
  br label %133

133:                                              ; preds = %129, %58
  call void @llvm.lifetime.end.p0(i64 4, ptr %8) #15
  call void @llvm.lifetime.end.p0(i64 8, ptr %7) #15
  call void @llvm.lifetime.end.p0(i64 8, ptr %6) #15
  call void @llvm.lifetime.end.p0(i64 8, ptr %5) #15
  %134 = load i32, ptr %9, align 4
  switch i32 %134, label %136 [
    i32 0, label %135
    i32 1, label %135
  ]

135:                                              ; preds = %133, %133
  ret void

136:                                              ; preds = %133, %103
  unreachable
}