; Function Attrs: nounwind sspstrong uwtable
define internal fastcc void @ahci_reset_port(ptr noundef %0, i32 noundef %1) unnamed_addr #0 {
  %3 = alloca %struct.timeval, align 8
  %4 = load ptr, ptr %0, align 16
  %5 = sext i32 %1 to i64
  %6 = getelementptr inbounds %struct.AHCIDevice, ptr %4, i64 %5
  %7 = getelementptr inbounds nuw i8, ptr %6, i64 56
  %8 = load i32, ptr @trace_events_enabled_count, align 4
  %.not.i.i = icmp eq i32 %8, 0
  br i1 %.not.i.i, label %trace_ahci_reset_port.exit, label %9, !prof !7

9:                                                ; preds = %2
  %10 = load i16, ptr @_TRACE_AHCI_RESET_PORT_DSTATE, align 2
  %.not3.i.i = icmp eq i16 %10, 0
  br i1 %.not3.i.i, label %trace_ahci_reset_port.exit, label %11

11:                                               ; preds = %9
  %12 = load i32, ptr @qemu_loglevel, align 4
  %13 = and i32 %12, 32768
  %.not4.i.i = icmp eq i32 %13, 0
  br i1 %.not4.i.i, label %trace_ahci_reset_port.exit, label %14

14:                                               ; preds = %11
  %15 = load i8, ptr @message_with_timestamp, align 1, !range !9, !noundef !10
  %16 = trunc nuw i8 %15 to i1
  br i1 %16, label %17, label %23

17:                                               ; preds = %14
  call void @llvm.lifetime.start.p0(i64 16, ptr nonnull %3) #14
  call void @llvm.memset.p0.i64(ptr noundef nonnull align 8 dereferenceable(16) %3, i8 0, i64 16, i1 false), !annotation !11
  %18 = call i32 @gettimeofday(ptr noundef nonnull %3, ptr noundef null) #14
  %19 = tail call i32 @qemu_get_thread_id() #14
  %20 = load i64, ptr %3, align 8
  %21 = getelementptr inbounds nuw i8, ptr %3, i64 8
  %22 = load i64, ptr %21, align 8
  tail call void (ptr, ...) @qemu_log(ptr noundef nonnull @.str.193, i32 noundef %19, i64 noundef %20, i64 noundef %22, ptr noundef nonnull %0, i32 noundef %1) #14
  call void @llvm.lifetime.end.p0(i64 16, ptr nonnull %3) #14
  br label %trace_ahci_reset_port.exit

23:                                               ; preds = %14
  tail call void (ptr, ...) @qemu_log(ptr noundef nonnull @.str.194, ptr noundef nonnull %0, i32 noundef %1) #14
  br label %trace_ahci_reset_port.exit

trace_ahci_reset_port.exit:                       ; preds = %2, %9, %11, %17, %23
  tail call void @ide_bus_reset(ptr noundef nonnull %7) #14
  %24 = getelementptr inbounds nuw i8, ptr %6, i64 1168
  store i32 32, ptr %24, align 8
  %25 = getelementptr inbounds nuw i8, ptr %6, i64 2412
  store i32 0, ptr %25, align 4
  %26 = getelementptr inbounds nuw i8, ptr %6, i64 2420
  store i32 0, ptr %26, align 4
  %27 = getelementptr inbounds nuw i8, ptr %6, i64 2424
  store i32 0, ptr %27, align 4
  %28 = getelementptr inbounds nuw i8, ptr %6, i64 2404
  store i32 127, ptr %28, align 4
  %29 = getelementptr inbounds nuw i8, ptr %6, i64 2408
  store i32 -1, ptr %29, align 4
  %30 = getelementptr inbounds nuw i8, ptr %6, i64 2428
  store i32 0, ptr %30, align 4
  %31 = getelementptr inbounds nuw i8, ptr %6, i64 2476
  store i32 -1, ptr %31, align 4
  %32 = getelementptr inbounds nuw i8, ptr %6, i64 2480
  store i8 0, ptr %32, align 8
  %33 = load ptr, ptr %0, align 16
  %34 = getelementptr inbounds %struct.AHCIDevice, ptr %33, i64 %5, i32 1, i32 3
  %35 = getelementptr inbounds nuw i8, ptr %34, i64 672
  %36 = load ptr, ptr %35, align 8
  %.not = icmp eq ptr %36, null
  br i1 %.not, label %58, label %.preheader

.preheader:                                       ; preds = %trace_ahci_reset_port.exit, %49
  %indvars.iv = phi i64 [ %indvars.iv.next, %49 ], [ 0, %trace_ahci_reset_port.exit ]
  %37 = load ptr, ptr %0, align 16
  %38 = getelementptr inbounds %struct.AHCIDevice, ptr %37, i64 %5, i32 14, i64 %indvars.iv
  %39 = getelementptr inbounds nuw i8, ptr %38, i64 108
  store i8 0, ptr %39, align 4
  %40 = getelementptr inbounds nuw i8, ptr %38, i64 107
  %41 = load i8, ptr %40, align 1, !range !9, !noundef !10
  %42 = trunc nuw i8 %41 to i1
  br i1 %42, label %43, label %49

43:                                               ; preds = %.preheader
  %44 = getelementptr inbounds nuw i8, ptr %38, i64 8
  %45 = load ptr, ptr %44, align 8
  %.not41 = icmp eq ptr %45, null
  br i1 %.not41, label %.thread, label %46

46:                                               ; preds = %43
  tail call void @blk_aio_cancel(ptr noundef nonnull %45) #14
  store ptr null, ptr %44, align 8
  %.pre = load i8, ptr %40, align 1, !range !9
  %47 = trunc nuw i8 %.pre to i1
  br i1 %47, label %.thread, label %49

.thread:                                          ; preds = %43, %46
  %48 = getelementptr inbounds nuw i8, ptr %38, i64 24
  tail call void @qemu_sglist_destroy(ptr noundef nonnull %48) #14
  store i8 0, ptr %40, align 1
  br label %49

49:                                               ; preds = %46, %.preheader, %.thread
  %indvars.iv.next = add nuw nsw i64 %indvars.iv, 1
  %exitcond.not = icmp eq i64 %indvars.iv.next, 32
  br i1 %exitcond.not, label %50, label %.preheader, !llvm.loop !13

50:                                               ; preds = %49
  %51 = load ptr, ptr %0, align 16
  %52 = getelementptr inbounds %struct.AHCIDevice, ptr %51, i64 %5, i32 3
  store i32 0, ptr %52, align 4
  %53 = getelementptr inbounds nuw i8, ptr %34, i64 12
  %54 = load i32, ptr %53, align 4
  %55 = icmp eq i32 %54, 1
  %. = select i1 %55, i32 -351010559, i32 257
  %.45 = select i1 %55, i8 112, i8 48
  tail call fastcc void @ahci_set_signature(ptr noundef %6, i32 noundef %.)
  %56 = getelementptr inbounds nuw i8, ptr %34, i64 665
  store i8 %.45, ptr %56, align 1
  %57 = getelementptr inbounds nuw i8, ptr %34, i64 649
  store i8 1, ptr %57, align 1
  tail call fastcc void @ahci_init_d2h(ptr noundef %6)
  br label %58

58:                                               ; preds = %trace_ahci_reset_port.exit, %50
  ret void
}